target datalayout = "e-m:e-p270:32:32-p271:32:32-p272:64:64-i64:64-i128:128-f80:128-n8:16:32:64-S128"
target triple = "x86_64-pc-linux-gnu"

%struct.archive_write = type { %struct.archive, i32, i64, i64, ptr, i64, ptr, ptr, ptr, ptr, ptr, i32, i32, ptr, ptr, ptr, ptr, ptr, ptr, ptr, ptr, ptr, ptr, ptr, ptr, ptr, ptr }
%struct.archive = type { i32, i32, ptr, i32, ptr, i32, i32, ptr, %struct.archive_string, ptr, i32, i32, ptr, ptr, i64, i64, i64, i8, i64 }
%struct.archive_string = type { ptr, i64, i64 }
%struct.mtree_writer = type { ptr, ptr, ptr, %struct.archive_string, %struct.mtree_chain, %struct.archive_string, %struct.archive_string, i32, i64, %struct.anon, %struct.att_counter_set, i32, i32, i32, i32, i64, ptr, ptr, ptr, ptr, ptr, ptr, i32, i32, i32, i32 }
%struct.mtree_chain = type { ptr, ptr }
%struct.anon = type { i32, i32, i32, i64, i64, i32, i64, i64 }
%struct.att_counter_set = type { ptr, ptr, ptr, ptr }
%struct.mtree_entry = type { %struct.archive_rb_node, ptr, ptr, ptr, ptr, %struct.archive_string, %struct.archive_string, %struct.archive_string, %struct.archive_string, %struct.archive_string, %struct.archive_string, %struct.archive_string, i32, i32, i32, i64, i64, i64, i64, i64, i64, i64, i64, i64, i64, i64, i64 }
%struct.archive_rb_node = type { [2 x ptr], i64 }

@.str.45 = private unnamed_addr constant [9 x i8] c"# %s/%s\0A\00", align 1
@.str.82 = private unnamed_addr constant [5 x i8] c"..\0A\0A\00", align 1

; Function Attrs: nounwind uwtable
define internal i32 @write_dot_dot_entry(ptr noundef %0, ptr noundef %1) #0 {
  %3 = alloca ptr, align 8
  %4 = alloca ptr, align 8
  %5 = alloca ptr, align 8
  %6 = alloca i32, align 4
  %7 = alloca i32, align 4
  %8 = alloca i32, align 4
  store ptr %0, ptr %3, align 8, !tbaa !11
  store ptr %1, ptr %4, align 8, !tbaa !61
  call void @llvm.lifetime.start.p0(i64 8, ptr %5) #9
  %9 = load ptr, ptr %3, align 8, !tbaa !11
  %10 = getelementptr inbounds nuw %struct.archive_write, ptr %9, i32 0, i32 15
  %11 = load ptr, ptr %10, align 8, !tbaa !44
  store ptr %11, ptr %5, align 8, !tbaa !23
  call void @llvm.lifetime.start.p0(i64 4, ptr %6) #9
  %12 = load ptr, ptr %4, align 8, !tbaa !61
  %13 = getelementptr inbounds nuw %struct.mtree_entry, ptr %12, i32 0, i32 5
  %14 = getelementptr inbounds nuw %struct.archive_string, ptr %13, i32 0, i32 0
  %15 = load ptr, ptr %14, align 8, !tbaa !115
  %16 = icmp ne ptr %15, null
  br i1 %16, label %17, label %50

17:                                               ; preds = %2
  %18 = load ptr, ptr %5, align 8, !tbaa !23
  %19 = getelementptr inbounds nuw %struct.mtree_writer, ptr %18, i32 0, i32 24
  %20 = load i32, ptr %19, align 8, !tbaa !37
  %21 = icmp ne i32 %20, 0
  br i1 %21, label %22, label %39

22:                                               ; preds = %17
  call void @llvm.lifetime.start.p0(i64 4, ptr %7) #9
  call void @llvm.lifetime.start.p0(i64 4, ptr %8) #9
  %23 = load ptr, ptr %5, align 8, !tbaa !23
  %24 = getelementptr inbounds nuw %struct.mtree_writer, ptr %23, i32 0, i32 12
  %25 = load i32, ptr %24, align 4, !tbaa !144
  %26 = mul nsw i32 %25, 4
  store i32 %26, ptr %8, align 4, !tbaa !13
  store i32 0, ptr %7, align 4, !tbaa !13
  br label %27

27:                                               ; preds = %35, %22
  %28 = load i32, ptr %7, align 4, !tbaa !13
  %29 = load i32, ptr %8, align 4, !tbaa !13
  %30 = icmp slt i32 %28, %29
  br i1 %30, label %31, label %38

31:                                               ; preds = %27
  %32 = load ptr, ptr %5, align 8, !tbaa !23
  %33 = getelementptr inbounds nuw %struct.mtree_writer, ptr %32, i32 0, i32 6
  %34 = call ptr @archive_strappend_char(ptr noundef %33, i8 noundef signext 32)
  br label %35

35:                                               ; preds = %31
  %36 = load i32, ptr %7, align 4, !tbaa !13
  %37 = add nsw i32 %36, 1
  store i32 %37, ptr %7, align 4, !tbaa !13
  br label %27, !llvm.loop !172

38:                                               ; preds = %27
  call void @llvm.lifetime.end.p0(i64 4, ptr %8) #9
  call void @llvm.lifetime.end.p0(i64 4, ptr %7) #9
  br label %39

39:                                               ; preds = %38, %17
  %40 = load ptr, ptr %5, align 8, !tbaa !23
  %41 = getelementptr inbounds nuw %struct.mtree_writer, ptr %40, i32 0, i32 6
  %42 = load ptr, ptr %4, align 8, !tbaa !61
  %43 = getelementptr inbounds nuw %struct.mtree_entry, ptr %42, i32 0, i32 5
  %44 = getelementptr inbounds nuw %struct.archive_string, ptr %43, i32 0, i32 0
  %45 = load ptr, ptr %44, align 8, !tbaa !115
  %46 = load ptr, ptr %4, align 8, !tbaa !61
  %47 = getelementptr inbounds nuw %struct.mtree_entry, ptr %46, i32 0, i32 6
  %48 = getelementptr inbounds nuw %struct.archive_string, ptr %47, i32 0, i32 0
  %49 = load ptr, ptr %48, align 8, !tbaa !112
  call void (ptr, ptr, ...) @archive_string_sprintf(ptr noundef %41, ptr noundef @.str.45, ptr noundef %45, ptr noundef %49)
  br label %50

50:                                               ; preds = %39, %2
  %51 = load ptr, ptr %5, align 8, !tbaa !23
  %52 = getelementptr inbounds nuw %struct.mtree_writer, ptr %51, i32 0, i32 24
  %53 = load i32, ptr %52, align 8, !tbaa !37
  %54 = icmp ne i32 %53, 0
  br i1 %54, label %55, label %69

55:                                               ; preds = %50
  %56 = load ptr, ptr %5, align 8, !tbaa !23
  %57 = getelementptr inbounds nuw %struct.mtree_writer, ptr %56, i32 0, i32 5
  %58 = getelementptr inbounds nuw %struct.archive_string, ptr %57, i32 0, i32 1
  store i64 0, ptr %58, align 8, !tbaa !39
  %59 = load ptr, ptr %5, align 8, !tbaa !23
  %60 = getelementptr inbounds nuw %struct.mtree_writer, ptr %59, i32 0, i32 5
  %61 = load ptr, ptr %5, align 8, !tbaa !23
  %62 = getelementptr inbounds nuw %struct.mtree_writer, ptr %61, i32 0, i32 23
  %63 = load i32, ptr %62, align 4, !tbaa !36
  %64 = icmp ne i32 %63, 0
  %65 = select i1 %64, i32 3, i32 4
  %66 = sext i32 %65 to i64
  %67 = call ptr @archive_strncat(ptr noundef %60, ptr noundef @.str.82, i64 noundef %66)
  %68 = load ptr, ptr %5, align 8, !tbaa !23
  call void @mtree_indent(ptr noundef %68)
  br label %79

69:                                               ; preds = %50
  %70 = load ptr, ptr %5, align 8, !tbaa !23
  %71 = getelementptr inbounds nuw %struct.mtree_writer, ptr %70, i32 0, i32 6
  %72 = load ptr, ptr %5, align 8, !tbaa !23
  %73 = getelementptr inbounds nuw %struct.mtree_writer, ptr %72, i32 0, i32 23
  %74 = load i32, ptr %73, align 4, !tbaa !36
  %75 = icmp ne i32 %74, 0
  %76 = select i1 %75, i32 3, i32 4
  %77 = sext i32 %76 to i64
  %78 = call ptr @archive_strncat(ptr noundef %71, ptr noundef @.str.82, i64 noundef %77)
  br label %79

79:                                               ; preds = %69, %55
  %80 = load ptr, ptr %5, align 8, !tbaa !23
  %81 = getelementptr inbounds nuw %struct.mtree_writer, ptr %80, i32 0, i32 6
  %82 = getelementptr inbounds nuw %struct.archive_string, ptr %81, i32 0, i32 1
  %83 = load i64, ptr %82, align 8, !tbaa !42
  %84 = icmp ugt i64 %83, 32768
  br i1 %84, label %85, label %99

85:                                               ; preds = %79
  %86 = load ptr, ptr %3, align 8, !tbaa !11
  %87 = load ptr, ptr %5, align 8, !tbaa !23
  %88 = getelementptr inbounds nuw %struct.mtree_writer, ptr %87, i32 0, i32 6
  %89 = getelementptr inbounds nuw %struct.archive_string, ptr %88, i32 0, i32 0
  %90 = load ptr, ptr %89, align 8, !tbaa !41
  %91 = load ptr, ptr %5, align 8, !tbaa !23
  %92 = getelementptr inbounds nuw %struct.mtree_writer, ptr %91, i32 0, i32 6
  %93 = getelementptr inbounds nuw %struct.archive_string, ptr %92, i32 0, i32 1
  %94 = load i64, ptr %93, align 8, !tbaa !42
  %95 = call i32 @__archive_write_output(ptr noundef %86, ptr noundef %90, i64 noundef %94)
  store i32 %95, ptr %6, align 4, !tbaa !13
  %96 = load ptr, ptr %5, align 8, !tbaa !23
  %97 = getelementptr inbounds nuw %struct.mtree_writer, ptr %96, i32 0, i32 6
  %98 = getelementptr inbounds nuw %struct.archive_string, ptr %97, i32 0, i32 1
  store i64 0, ptr %98, align 8, !tbaa !42
  br label %100

99:                                               ; preds = %79
  store i32 0, ptr %6, align 4, !tbaa !13
  br label %100

100:                                              ; preds = %99, %85
  %101 = load i32, ptr %6, align 4, !tbaa !13
  call void @llvm.lifetime.end.p0(i64 4, ptr %6) #9
  call void @llvm.lifetime.end.p0(i64 8, ptr %5) #9
  ret i32 %101
}