; Function Attrs: nounwind uwtable
define internal fastcc i32 @write_dot_dot_entry(ptr noundef %0, ptr noundef readonly captures(none) %1) unnamed_addr #0 {
  %3 = getelementptr inbounds nuw i8, ptr %0, i64 248
  %4 = load ptr, ptr %3, align 8, !tbaa !28
  %5 = getelementptr inbounds nuw i8, ptr %1, i64 56
  %6 = load ptr, ptr %5, align 8, !tbaa !64
  %.not = icmp eq ptr %6, null
  br i1 %.not, label %23, label %7

7:                                                ; preds = %2
  %8 = getelementptr inbounds nuw i8, ptr %4, i64 296
  %9 = load i32, ptr %8, align 8, !tbaa !55
  %.not25 = icmp eq i32 %9, 0
  br i1 %.not25, label %.loopexit, label %10

10:                                               ; preds = %7
  %11 = getelementptr inbounds nuw i8, ptr %4, i64 220
  %12 = load i32, ptr %11, align 4, !tbaa !119
  %13 = icmp sgt i32 %12, 0
  br i1 %13, label %.lr.ph, label %.loopexit

.lr.ph:                                           ; preds = %10
  %14 = shl i32 %12, 2
  %15 = getelementptr inbounds nuw i8, ptr %4, i64 88
  %smax = tail call i32 @llvm.smax.i32(i32 %14, i32 1)
  br label %16

16:                                               ; preds = %.lr.ph, %16
  %.02329 = phi i32 [ 0, %.lr.ph ], [ %18, %16 ]
  %17 = tail call ptr @archive_strappend_char(ptr noundef nonnull %15, i8 noundef signext 32) #14
  %18 = add nuw nsw i32 %.02329, 1
  %exitcond.not = icmp eq i32 %18, %smax
  br i1 %exitcond.not, label %.loopexit.loopexit, label %16, !llvm.loop !166

.loopexit.loopexit:                               ; preds = %16
  %.pre = load ptr, ptr %5, align 8, !tbaa !64
  br label %.loopexit

.loopexit:                                        ; preds = %.loopexit.loopexit, %10, %7
  %19 = phi ptr [ %.pre, %.loopexit.loopexit ], [ %6, %10 ], [ %6, %7 ]
  %20 = getelementptr inbounds nuw i8, ptr %4, i64 88
  %21 = getelementptr inbounds nuw i8, ptr %1, i64 80
  %22 = load ptr, ptr %21, align 8, !tbaa !60
  tail call void (ptr, ptr, ...) @archive_string_sprintf(ptr noundef nonnull %20, ptr noundef nonnull @.str.45, ptr noundef %19, ptr noundef %22) #14
  br label %23

23:                                               ; preds = %.loopexit, %2
  %24 = getelementptr inbounds nuw i8, ptr %4, i64 296
  %25 = load i32, ptr %24, align 8, !tbaa !55
  %.not26 = icmp eq i32 %25, 0
  br i1 %.not26, label %33, label %26

26:                                               ; preds = %23
  %27 = getelementptr inbounds nuw i8, ptr %4, i64 64
  %28 = getelementptr inbounds nuw i8, ptr %4, i64 72
  store i64 0, ptr %28, align 8, !tbaa !151
  %29 = getelementptr inbounds nuw i8, ptr %4, i64 292
  %30 = load i32, ptr %29, align 4, !tbaa !54
  %.not28 = icmp eq i32 %30, 0
  %31 = select i1 %.not28, i64 4, i64 3
  %32 = tail call ptr @archive_strncat(ptr noundef nonnull %27, ptr noundef nonnull @.str.82, i64 noundef %31) #14
  tail call fastcc void @mtree_indent(ptr noundef nonnull %4)
  br label %39

33:                                               ; preds = %23
  %34 = getelementptr inbounds nuw i8, ptr %4, i64 88
  %35 = getelementptr inbounds nuw i8, ptr %4, i64 292
  %36 = load i32, ptr %35, align 4, !tbaa !54
  %.not27 = icmp eq i32 %36, 0
  %37 = select i1 %.not27, i64 4, i64 3
  %38 = tail call ptr @archive_strncat(ptr noundef nonnull %34, ptr noundef nonnull @.str.82, i64 noundef %37) #14
  br label %39

39:                                               ; preds = %33, %26
  %40 = getelementptr inbounds nuw i8, ptr %4, i64 96
  %41 = load i64, ptr %40, align 8, !tbaa !127
  %42 = icmp ugt i64 %41, 32768
  br i1 %42, label %43, label %47

43:                                               ; preds = %39
  %44 = getelementptr inbounds nuw i8, ptr %4, i64 88
  %45 = load ptr, ptr %44, align 8, !tbaa !126
  %46 = tail call i32 @__archive_write_output(ptr noundef %0, ptr noundef %45, i64 noundef %41) #14
  store i64 0, ptr %40, align 8, !tbaa !127
  br label %47

47:                                               ; preds = %39, %43
  %.0 = phi i32 [ %46, %43 ], [ 0, %39 ]
  ret i32 %.0
}